target datalayout = "e-m:e-p270:32:32-p271:32:32-p272:64:64-i64:64-i128:128-f80:128-n8:16:32:64-S128"
target triple = "x86_64-pc-linux-gnu"

%struct.ComplexMatrix2 = type { [2 x [2 x double]], [2 x [2 x double]] }
%struct.ComplexMatrix4 = type { [4 x [4 x double]], [4 x [4 x double]] }

; Function Attrs: nounwind uwtable
define void @populateKrausSuperOperator2(ptr noundef %0, ptr noundef %1, i32 noundef %2) #0 {
  %4 = alloca ptr, align 8
  %5 = alloca ptr, align 8
  %6 = alloca i32, align 4
  %7 = alloca i32, align 4
  %8 = alloca i32, align 4
  %9 = alloca i32, align 4
  %10 = alloca i32, align 4
  %11 = alloca i32, align 4
  %12 = alloca i32, align 4
  %13 = alloca i32, align 4
  %14 = alloca i32, align 4
  %15 = alloca i32, align 4
  store ptr %0, ptr %4, align 8, !tbaa !56
  store ptr %1, ptr %5, align 8, !tbaa !58
  store i32 %2, ptr %6, align 4, !tbaa !9
  call void @llvm.lifetime.start.p0(i64 4, ptr %7) #8
  store i32 2, ptr %7, align 4, !tbaa !9
  call void @llvm.lifetime.start.p0(i64 4, ptr %8) #8
  store i32 0, ptr %8, align 4, !tbaa !9
  br label %16

16:                                               ; preds = %52, %3
  %17 = load i32, ptr %8, align 4, !tbaa !9
  %18 = load i32, ptr %7, align 4, !tbaa !9
  %19 = load i32, ptr %7, align 4, !tbaa !9
  %20 = mul nsw i32 %18, %19
  %21 = icmp slt i32 %17, %20
  br i1 %21, label %23, label %22

22:                                               ; preds = %16
  store i32 2, ptr %9, align 4
  call void @llvm.lifetime.end.p0(i64 4, ptr %8) #8
  br label %55

23:                                               ; preds = %16
  call void @llvm.lifetime.start.p0(i64 4, ptr %10) #8
  store i32 0, ptr %10, align 4, !tbaa !9
  br label %24

24:                                               ; preds = %48, %23
  %25 = load i32, ptr %10, align 4, !tbaa !9
  %26 = load i32, ptr %7, align 4, !tbaa !9
  %27 = load i32, ptr %7, align 4, !tbaa !9
  %28 = mul nsw i32 %26, %27
  %29 = icmp slt i32 %25, %28
  br i1 %29, label %31, label %30

30:                                               ; preds = %24
  store i32 5, ptr %9, align 4
  call void @llvm.lifetime.end.p0(i64 4, ptr %10) #8
  br label %51

31:                                               ; preds = %24
  %32 = load ptr, ptr %4, align 8, !tbaa !56
  %33 = getelementptr inbounds nuw %struct.ComplexMatrix4, ptr %32, i32 0, i32 0
  %34 = load i32, ptr %8, align 4, !tbaa !9
  %35 = sext i32 %34 to i64
  %36 = getelementptr inbounds [4 x [4 x double]], ptr %33, i64 0, i64 %35
  %37 = load i32, ptr %10, align 4, !tbaa !9
  %38 = sext i32 %37 to i64
  %39 = getelementptr inbounds [4 x double], ptr %36, i64 0, i64 %38
  store double 0.000000e+00, ptr %39, align 8, !tbaa !18
  %40 = load ptr, ptr %4, align 8, !tbaa !56
  %41 = getelementptr inbounds nuw %struct.ComplexMatrix4, ptr %40, i32 0, i32 1
  %42 = load i32, ptr %8, align 4, !tbaa !9
  %43 = sext i32 %42 to i64
  %44 = getelementptr inbounds [4 x [4 x double]], ptr %41, i64 0, i64 %43
  %45 = load i32, ptr %10, align 4, !tbaa !9
  %46 = sext i32 %45 to i64
  %47 = getelementptr inbounds [4 x double], ptr %44, i64 0, i64 %46
  store double 0.000000e+00, ptr %47, align 8, !tbaa !18
  br label %48

48:                                               ; preds = %31
  %49 = load i32, ptr %10, align 4, !tbaa !9
  %50 = add nsw i32 %49, 1
  store i32 %50, ptr %10, align 4, !tbaa !9
  br label %24

51:                                               ; preds = %30
  br label %52

52:                                               ; preds = %51
  %53 = load i32, ptr %8, align 4, !tbaa !9
  %54 = add nsw i32 %53, 1
  store i32 %54, ptr %8, align 4, !tbaa !9
  br label %16

55:                                               ; preds = %22
  call void @llvm.lifetime.start.p0(i64 4, ptr %11) #8
  store i32 0, ptr %11, align 4, !tbaa !9
  br label %56

56:                                               ; preds = %239, %55
  %57 = load i32, ptr %11, align 4, !tbaa !9
  %58 = load i32, ptr %6, align 4, !tbaa !9
  %59 = icmp slt i32 %57, %58
  br i1 %59, label %61, label %60

60:                                               ; preds = %56
  store i32 8, ptr %9, align 4
  call void @llvm.lifetime.end.p0(i64 4, ptr %11) #8
  br label %242

61:                                               ; preds = %56
  call void @llvm.lifetime.start.p0(i64 4, ptr %12) #8
  store i32 0, ptr %12, align 4, !tbaa !9
  br label %62

62:                                               ; preds = %235, %61
  %63 = load i32, ptr %12, align 4, !tbaa !9
  %64 = load i32, ptr %7, align 4, !tbaa !9
  %65 = icmp slt i32 %63, %64
  br i1 %65, label %67, label %66

66:                                               ; preds = %62
  store i32 11, ptr %9, align 4
  call void @llvm.lifetime.end.p0(i64 4, ptr %12) #8
  br label %238

67:                                               ; preds = %62
  call void @llvm.lifetime.start.p0(i64 4, ptr %13) #8
  store i32 0, ptr %13, align 4, !tbaa !9
  br label %68

68:                                               ; preds = %231, %67
  %69 = load i32, ptr %13, align 4, !tbaa !9
  %70 = load i32, ptr %7, align 4, !tbaa !9
  %71 = icmp slt i32 %69, %70
  br i1 %71, label %73, label %72

72:                                               ; preds = %68
  store i32 14, ptr %9, align 4
  call void @llvm.lifetime.end.p0(i64 4, ptr %13) #8
  br label %234

73:                                               ; preds = %68
  call void @llvm.lifetime.start.p0(i64 4, ptr %14) #8
  store i32 0, ptr %14, align 4, !tbaa !9
  br label %74

74:                                               ; preds = %227, %73
  %75 = load i32, ptr %14, align 4, !tbaa !9
  %76 = load i32, ptr %7, align 4, !tbaa !9
  %77 = icmp slt i32 %75, %76
  br i1 %77, label %79, label %78

78:                                               ; preds = %74
  store i32 17, ptr %9, align 4
  call void @llvm.lifetime.end.p0(i64 4, ptr %14) #8
  br label %230

79:                                               ; preds = %74
  call void @llvm.lifetime.start.p0(i64 4, ptr %15) #8
  store i32 0, ptr %15, align 4, !tbaa !9
  br label %80

80:                                               ; preds = %223, %79
  %81 = load i32, ptr %15, align 4, !tbaa !9
  %82 = load i32, ptr %7, align 4, !tbaa !9
  %83 = icmp slt i32 %81, %82
  br i1 %83, label %85, label %84

84:                                               ; preds = %80
  store i32 20, ptr %9, align 4
  call void @llvm.lifetime.end.p0(i64 4, ptr %15) #8
  br label %226

85:                                               ; preds = %80
  %86 = load ptr, ptr %5, align 8, !tbaa !58
  %87 = load i32, ptr %11, align 4, !tbaa !9
  %88 = sext i32 %87 to i64
  %89 = getelementptr inbounds %struct.ComplexMatrix2, ptr %86, i64 %88
  %90 = getelementptr inbounds nuw %struct.ComplexMatrix2, ptr %89, i32 0, i32 0
  %91 = load i32, ptr %12, align 4, !tbaa !9
  %92 = sext i32 %91 to i64
  %93 = getelementptr inbounds [2 x [2 x double]], ptr %90, i64 0, i64 %92
  %94 = load i32, ptr %13, align 4, !tbaa !9
  %95 = sext i32 %94 to i64
  %96 = getelementptr inbounds [2 x double], ptr %93, i64 0, i64 %95
  %97 = load double, ptr %96, align 8, !tbaa !18
  %98 = load ptr, ptr %5, align 8, !tbaa !58
  %99 = load i32, ptr %11, align 4, !tbaa !9
  %100 = sext i32 %99 to i64
  %101 = getelementptr inbounds %struct.ComplexMatrix2, ptr %98, i64 %100
  %102 = getelementptr inbounds nuw %struct.ComplexMatrix2, ptr %101, i32 0, i32 0
  %103 = load i32, ptr %14, align 4, !tbaa !9
  %104 = sext i32 %103 to i64
  %105 = getelementptr inbounds [2 x [2 x double]], ptr %102, i64 0, i64 %104
  %106 = load i32, ptr %15, align 4, !tbaa !9
  %107 = sext i32 %106 to i64
  %108 = getelementptr inbounds [2 x double], ptr %105, i64 0, i64 %107
  %109 = load double, ptr %108, align 8, !tbaa !18
  %110 = load ptr, ptr %5, align 8, !tbaa !58
  %111 = load i32, ptr %11, align 4, !tbaa !9
  %112 = sext i32 %111 to i64
  %113 = getelementptr inbounds %struct.ComplexMatrix2, ptr %110, i64 %112
  %114 = getelementptr inbounds nuw %struct.ComplexMatrix2, ptr %113, i32 0, i32 1
  %115 = load i32, ptr %12, align 4, !tbaa !9
  %116 = sext i32 %115 to i64
  %117 = getelementptr inbounds [2 x [2 x double]], ptr %114, i64 0, i64 %116
  %118 = load i32, ptr %13, align 4, !tbaa !9
  %119 = sext i32 %118 to i64
  %120 = getelementptr inbounds [2 x double], ptr %117, i64 0, i64 %119
  %121 = load double, ptr %120, align 8, !tbaa !18
  %122 = load ptr, ptr %5, align 8, !tbaa !58
  %123 = load i32, ptr %11, align 4, !tbaa !9
  %124 = sext i32 %123 to i64
  %125 = getelementptr inbounds %struct.ComplexMatrix2, ptr %122, i64 %124
  %126 = getelementptr inbounds nuw %struct.ComplexMatrix2, ptr %125, i32 0, i32 1
  %127 = load i32, ptr %14, align 4, !tbaa !9
  %128 = sext i32 %127 to i64
  %129 = getelementptr inbounds [2 x [2 x double]], ptr %126, i64 0, i64 %128
  %130 = load i32, ptr %15, align 4, !tbaa !9
  %131 = sext i32 %130 to i64
  %132 = getelementptr inbounds [2 x double], ptr %129, i64 0, i64 %131
  %133 = load double, ptr %132, align 8, !tbaa !18
  %134 = fmul double %121, %133
  %135 = call double @llvm.fmuladd.f64(double %97, double %109, double %134)
  %136 = load ptr, ptr %4, align 8, !tbaa !56
  %137 = getelementptr inbounds nuw %struct.ComplexMatrix4, ptr %136, i32 0, i32 0
  %138 = load i32, ptr %12, align 4, !tbaa !9
  %139 = load i32, ptr %7, align 4, !tbaa !9
  %140 = mul nsw i32 %138, %139
  %141 = load i32, ptr %14, align 4, !tbaa !9
  %142 = add nsw i32 %140, %141
  %143 = sext i32 %142 to i64
  %144 = getelementptr inbounds [4 x [4 x double]], ptr %137, i64 0, i64 %143
  %145 = load i32, ptr %13, align 4, !tbaa !9
  %146 = load i32, ptr %7, align 4, !tbaa !9
  %147 = mul nsw i32 %145, %146
  %148 = load i32, ptr %15, align 4, !tbaa !9
  %149 = add nsw i32 %147, %148
  %150 = sext i32 %149 to i64
  %151 = getelementptr inbounds [4 x double], ptr %144, i64 0, i64 %150
  %152 = load double, ptr %151, align 8, !tbaa !18
  %153 = fadd double %152, %135
  store double %153, ptr %151, align 8, !tbaa !18
  %154 = load ptr, ptr %5, align 8, !tbaa !58
  %155 = load i32, ptr %11, align 4, !tbaa !9
  %156 = sext i32 %155 to i64
  %157 = getelementptr inbounds %struct.ComplexMatrix2, ptr %154, i64 %156
  %158 = getelementptr inbounds nuw %struct.ComplexMatrix2, ptr %157, i32 0, i32 0
  %159 = load i32, ptr %12, align 4, !tbaa !9
  %160 = sext i32 %159 to i64
  %161 = getelementptr inbounds [2 x [2 x double]], ptr %158, i64 0, i64 %160
  %162 = load i32, ptr %13, align 4, !tbaa !9
  %163 = sext i32 %162 to i64
  %164 = getelementptr inbounds [2 x double], ptr %161, i64 0, i64 %163
  %165 = load double, ptr %164, align 8, !tbaa !18
  %166 = load ptr, ptr %5, align 8, !tbaa !58
  %167 = load i32, ptr %11, align 4, !tbaa !9
  %168 = sext i32 %167 to i64
  %169 = getelementptr inbounds %struct.ComplexMatrix2, ptr %166, i64 %168
  %170 = getelementptr inbounds nuw %struct.ComplexMatrix2, ptr %169, i32 0, i32 1
  %171 = load i32, ptr %14, align 4, !tbaa !9
  %172 = sext i32 %171 to i64
  %173 = getelementptr inbounds [2 x [2 x double]], ptr %170, i64 0, i64 %172
  %174 = load i32, ptr %15, align 4, !tbaa !9
  %175 = sext i32 %174 to i64
  %176 = getelementptr inbounds [2 x double], ptr %173, i64 0, i64 %175
  %177 = load double, ptr %176, align 8, !tbaa !18
  %178 = load ptr, ptr %5, align 8, !tbaa !58
  %179 = load i32, ptr %11, align 4, !tbaa !9
  %180 = sext i32 %179 to i64
  %181 = getelementptr inbounds %struct.ComplexMatrix2, ptr %178, i64 %180
  %182 = getelementptr inbounds nuw %struct.ComplexMatrix2, ptr %181, i32 0, i32 1
  %183 = load i32, ptr %12, align 4, !tbaa !9
  %184 = sext i32 %183 to i64
  %185 = getelementptr inbounds [2 x [2 x double]], ptr %182, i64 0, i64 %184
  %186 = load i32, ptr %13, align 4, !tbaa !9
  %187 = sext i32 %186 to i64
  %188 = getelementptr inbounds [2 x double], ptr %185, i64 0, i64 %187
  %189 = load double, ptr %188, align 8, !tbaa !18
  %190 = load ptr, ptr %5, align 8, !tbaa !58
  %191 = load i32, ptr %11, align 4, !tbaa !9
  %192 = sext i32 %191 to i64
  %193 = getelementptr inbounds %struct.ComplexMatrix2, ptr %190, i64 %192
  %194 = getelementptr inbounds nuw %struct.ComplexMatrix2, ptr %193, i32 0, i32 0
  %195 = load i32, ptr %14, align 4, !tbaa !9
  %196 = sext i32 %195 to i64
  %197 = getelementptr inbounds [2 x [2 x double]], ptr %194, i64 0, i64 %196
  %198 = load i32, ptr %15, align 4, !tbaa !9
  %199 = sext i32 %198 to i64
  %200 = getelementptr inbounds [2 x double], ptr %197, i64 0, i64 %199
  %201 = load double, ptr %200, align 8, !tbaa !18
  %202 = fmul double %189, %201
  %203 = fneg double %202
  %204 = call double @llvm.fmuladd.f64(double %165, double %177, double %203)
  %205 = load ptr, ptr %4, align 8, !tbaa !56
  %206 = getelementptr inbounds nuw %struct.ComplexMatrix4, ptr %205, i32 0, i32 1
  %207 = load i32, ptr %12, align 4, !tbaa !9
  %208 = load i32, ptr %7, align 4, !tbaa !9
  %209 = mul nsw i32 %207, %208
  %210 = load i32, ptr %14, align 4, !tbaa !9
  %211 = add nsw i32 %209, %210
  %212 = sext i32 %211 to i64
  %213 = getelementptr inbounds [4 x [4 x double]], ptr %206, i64 0, i64 %212
  %214 = load i32, ptr %13, align 4, !tbaa !9
  %215 = load i32, ptr %7, align 4, !tbaa !9
  %216 = mul nsw i32 %214, %215
  %217 = load i32, ptr %15, align 4, !tbaa !9
  %218 = add nsw i32 %216, %217
  %219 = sext i32 %218 to i64
  %220 = getelementptr inbounds [4 x double], ptr %213, i64 0, i64 %219
  %221 = load double, ptr %220, align 8, !tbaa !18
  %222 = fadd double %221, %204
  store double %222, ptr %220, align 8, !tbaa !18
  br label %223

223:                                              ; preds = %85
  %224 = load i32, ptr %15, align 4, !tbaa !9
  %225 = add nsw i32 %224, 1
  store i32 %225, ptr %15, align 4, !tbaa !9
  br label %80

226:                                              ; preds = %84
  br label %227

227:                                              ; preds = %226
  %228 = load i32, ptr %14, align 4, !tbaa !9
  %229 = add nsw i32 %228, 1
  store i32 %229, ptr %14, align 4, !tbaa !9
  br label %74

230:                                              ; preds = %78
  br label %231

231:                                              ; preds = %230
  %232 = load i32, ptr %13, align 4, !tbaa !9
  %233 = add nsw i32 %232, 1
  store i32 %233, ptr %13, align 4, !tbaa !9
  br label %68

234:                                              ; preds = %72
  br label %235

235:                                              ; preds = %234
  %236 = load i32, ptr %12, align 4, !tbaa !9
  %237 = add nsw i32 %236, 1
  store i32 %237, ptr %12, align 4, !tbaa !9
  br label %62

238:                                              ; preds = %66
  br label %239

239:                                              ; preds = %238
  %240 = load i32, ptr %11, align 4, !tbaa !9
  %241 = add nsw i32 %240, 1
  store i32 %241, ptr %11, align 4, !tbaa !9
  br label %56

242:                                              ; preds = %60
  call void @llvm.lifetime.end.p0(i64 4, ptr %7) #8
  ret void
}