; Function Attrs: nofree norecurse nosync nounwind memory(argmem: readwrite) uwtable
define void @populateKrausSuperOperator2(ptr noundef captures(none) %0, ptr noundef readonly captures(none) %1, i32 noundef %2) local_unnamed_addr #7 {
  %4 = getelementptr inbounds nuw i8, ptr %0, i64 128
  br label %.preheader84

.preheader84:                                     ; preds = %3, %6
  %indvars.iv93 = phi i64 [ 0, %3 ], [ %indvars.iv.next94, %6 ]
  br label %7

.preheader83:                                     ; preds = %6
  %5 = icmp sgt i32 %2, 0
  br i1 %5, label %.preheader82.lr.ph, label %._crit_edge

.preheader82.lr.ph:                               ; preds = %.preheader83
  %wide.trip.count = zext nneg i32 %2 to i64
  br label %.preheader82

6:                                                ; preds = %7
  %indvars.iv.next94 = add nuw nsw i64 %indvars.iv93, 1
  %exitcond96.not = icmp eq i64 %indvars.iv.next94, 4
  br i1 %exitcond96.not, label %.preheader83, label %.preheader84

7:                                                ; preds = %.preheader84, %7
  %indvars.iv = phi i64 [ 0, %.preheader84 ], [ %indvars.iv.next, %7 ]
  %8 = getelementptr inbounds nuw [4 x [4 x double]], ptr %0, i64 0, i64 %indvars.iv93, i64 %indvars.iv
  store double 0.000000e+00, ptr %8, align 8, !tbaa !13
  %9 = getelementptr inbounds nuw [4 x [4 x double]], ptr %4, i64 0, i64 %indvars.iv93, i64 %indvars.iv
  store double 0.000000e+00, ptr %9, align 8, !tbaa !13
  %indvars.iv.next = add nuw nsw i64 %indvars.iv, 1
  %exitcond.not = icmp eq i64 %indvars.iv.next, 4
  br i1 %exitcond.not, label %6, label %7

.preheader82:                                     ; preds = %.preheader82.lr.ph, %14
  %indvars.iv109 = phi i64 [ 0, %.preheader82.lr.ph ], [ %indvars.iv.next110, %14 ]
  %10 = getelementptr inbounds nuw %struct.ComplexMatrix2, ptr %1, i64 %indvars.iv109
  %11 = getelementptr inbounds nuw i8, ptr %10, i64 32
  br label %.preheader81

._crit_edge:                                      ; preds = %14, %.preheader83
  ret void

.preheader81:                                     ; preds = %.preheader82, %19
  %12 = phi i1 [ true, %.preheader82 ], [ false, %19 ]
  %indvars.iv106 = phi i64 [ 0, %.preheader82 ], [ 1, %19 ]
  %13 = shl nuw nsw i64 %indvars.iv106, 1
  br label %.preheader80

14:                                               ; preds = %19
  %indvars.iv.next110 = add nuw nsw i64 %indvars.iv109, 1
  %exitcond112.not = icmp eq i64 %indvars.iv.next110, %wide.trip.count
  br i1 %exitcond112.not, label %._crit_edge, label %.preheader82

.preheader80:                                     ; preds = %.preheader81, %22
  %15 = phi i1 [ true, %.preheader81 ], [ false, %22 ]
  %indvars.iv103 = phi i64 [ 0, %.preheader81 ], [ 1, %22 ]
  %16 = getelementptr inbounds nuw [2 x [2 x double]], ptr %10, i64 0, i64 %indvars.iv106, i64 %indvars.iv103
  %17 = getelementptr inbounds nuw [2 x [2 x double]], ptr %11, i64 0, i64 %indvars.iv106, i64 %indvars.iv103
  %18 = shl nuw nsw i64 %indvars.iv103, 1
  br label %.preheader

19:                                               ; preds = %22
  br i1 %12, label %.preheader81, label %14

.preheader:                                       ; preds = %.preheader80, %23
  %20 = phi i1 [ true, %.preheader80 ], [ false, %23 ]
  %indvars.iv100 = phi i64 [ 0, %.preheader80 ], [ 1, %23 ]
  %21 = or disjoint i64 %indvars.iv100, %13
  br label %24

22:                                               ; preds = %23
  br i1 %15, label %.preheader80, label %19

23:                                               ; preds = %24
  br i1 %20, label %.preheader, label %22

24:                                               ; preds = %.preheader, %24
  %25 = phi i1 [ true, %.preheader ], [ false, %24 ]
  %indvars.iv97 = phi i64 [ 0, %.preheader ], [ 1, %24 ]
  %26 = load double, ptr %16, align 8, !tbaa !13
  %27 = getelementptr inbounds nuw [2 x [2 x double]], ptr %10, i64 0, i64 %indvars.iv100, i64 %indvars.iv97
  %28 = load double, ptr %27, align 8, !tbaa !13
  %29 = load double, ptr %17, align 8, !tbaa !13
  %30 = getelementptr inbounds nuw [2 x [2 x double]], ptr %11, i64 0, i64 %indvars.iv100, i64 %indvars.iv97
  %31 = load double, ptr %30, align 8, !tbaa !13
  %32 = fmul double %29, %31
  %33 = tail call double @llvm.fmuladd.f64(double %26, double %28, double %32)
  %34 = or disjoint i64 %indvars.iv97, %18
  %35 = getelementptr inbounds nuw [4 x [4 x double]], ptr %0, i64 0, i64 %21, i64 %34
  %36 = load double, ptr %35, align 8, !tbaa !13
  %37 = fadd double %36, %33
  store double %37, ptr %35, align 8, !tbaa !13
  %38 = load double, ptr %16, align 8, !tbaa !13
  %39 = load double, ptr %30, align 8, !tbaa !13
  %40 = load double, ptr %17, align 8, !tbaa !13
  %41 = load double, ptr %27, align 8, !tbaa !13
  %42 = fneg double %41
  %43 = fmul double %40, %42
  %44 = tail call double @llvm.fmuladd.f64(double %38, double %39, double %43)
  %45 = getelementptr inbounds nuw [4 x [4 x double]], ptr %4, i64 0, i64 %21, i64 %34
  %46 = load double, ptr %45, align 8, !tbaa !13
  %47 = fadd double %46, %44
  store double %47, ptr %45, align 8, !tbaa !13
  br i1 %25, label %24, label %23
}